Open Watcom Linker Version 1.4
Portions Copyright (c) 1985-2002 Sybase, Inc. All Rights Reserved.
Created on:       20/02/21 10:29:57
Executable Image: aeudos.exe
creating a PMODE/W executable


                        +------------+
                        |   Groups   |
                        +------------+

Group                           Address              Size
=====                           =======              ====

DGROUP                          0002:00000000        000055d0



                        +--------------+
                        |   Segments   |
                        +--------------+

Segment                Class          Group          Address         Size
=======                =====          =====          =======         ====

BEGTEXT                CODE           AUTO           0001:00000000   00000010
_TEXT                  CODE           AUTO           0001:00000010   0001bbac
_NULL                  BEGDATA        DGROUP         0002:00000000   00000004
_AFTERNULL             BEGDATA        DGROUP         0002:00000004   00000000
CONST                  DATA           DGROUP         0002:00000004   000034df
CONST2                 DATA           DGROUP         0002:000034e4   00000234
_DATA                  DATA           DGROUP         0002:00003720   0000077c
XIB                    DATA           DGROUP         0002:00003e9c   00000000
XI                     DATA           DGROUP         0002:00003e9c   0000003c
XIE                    DATA           DGROUP         0002:00003ed8   00000000
YIB                    DATA           DGROUP         0002:00003ed8   00000000
YI                     DATA           DGROUP         0002:00003ed8   0000001e
YIE                    DATA           DGROUP         0002:00003ef6   00000000
TIB                    DATA           DGROUP         0002:00003ef6   00000000
TI                     DATA           DGROUP         0002:00003ef6   00000000
TIE                    DATA           DGROUP         0002:00003ef6   00000000
DATA                   DATA           DGROUP         0002:00003ef6   00000000
_BSS                   BSS            DGROUP         0002:00003ef8   000006d6
STACK                  STACK          DGROUP         0002:000045d0   00001000


                        +----------------+
                        |   Memory Map   |
                        +----------------+

* = unreferenced symbol
+ = symbol only referenced locally

Address        Symbol
=======        ======

Module: aec.obj(D:\Neil\Work\UEFI\EDK2\AEUPkg\src\aec.c)
0001:000001e2  proc_aec_init_
0001:0000023a  proc_aec_exit_
0001:0000027f+ proc_aec_get_info_
0001:00000317  proc_aec_print_info_
0001:000003c6  show_board_info_
0001:00000439  proc_aec_print_bin_
0001:0000058b  show_image_info_
0001:0000069e  proc_aec_update_
Module: acpi.obj(D:\Neil\Work\UEFI\EDK2\AEUPkg\src\base\acpi.c)
0001:00000881  acpi_init_port_
0001:000008c3* acpi_close_port_
0001:00000905  acpi_read_byte_
0001:00000985* acpi_write_byte_
Module: ite.obj(D:\Neil\Work\UEFI\EDK2\AEUPkg\src\base\ite.c)
0001:00000a06+ ite_pnp_unlock_
0001:00000a45+ ite_pnp_lock_
0001:00000a75+ ite_pnp_write_
0001:00000ab6+ ite_pnp_read_
0001:00000af8* WriteITEConfigEC_
0001:00000b8f+ ite_pmc_check_busy_
0001:00000c18  ite_read_ec_ram_
0001:00000cfa* ite_ec_get_ecram_info_
0001:00000dae* ite_ec_init_
Module: pmc.obj(D:\Neil\Work\UEFI\EDK2\AEUPkg\src\base\pmc.c)
0001:00000e5f  pmc_open_port_
0001:00000ec8  pmc_close_port_
0001:00000f05+ pmc_check_ibf_
0001:00000f7a+ pmc_check_obf_
0001:00000fef  pmc_write_cmd_
0001:0000105d  pmc_write_data_
0001:000010b1  pmc_read_data_
0001:00001108+ ite_pmc_check_ibf_
0001:000011da+ ite_pmc_check_obf_
0001:000012ac  ite_pmc_write_cmd_
0001:0000131a  ite_pmc_write_data_
0001:0000136e  ite_pmc_read_data_
Module: rdc.obj(D:\Neil\Work\UEFI\EDK2\AEUPkg\src\base\rdc.c)
0001:000013c5+ rdc_pnp_unlock_
0001:00001404+ rdc_pnp_lock_
0001:00001434+ rdc_pnp_write_
0001:00001475+ rdc_pnp_read_
0001:000014b7  rdc_pmc_write_cmd_
0001:00001501  rdc_pmc_write_data_
0001:0000154b  rdc_pmc_read_data_
0001:00001594+ rdc_ecio_inp_
0001:000015eb+ rdc_ecio_outp_
0001:00001641+ rdc_ecio_inpw_
0001:00001698+ rdc_ecio_outpw_
0001:000016ee  rdc_ecio_inpd_
0001:00001738* rdc_ecio_outpd_
0001:000017f9+ rdc_spi_data_exchange_
0001:000018f5+ rdc_spi_read_data_
0001:00001954+ rdc_spi_write_data_
0001:000019b3+ rdc_fla_enable_write_
0001:00001a00+ rdc_fla_disable_write_
0001:00001a4d+ rdc_fla_read_status_
0001:00001ab0+ rdc_fla_write_status_
0001:00001b4b+ rdc_fla_read_id_
0001:00001bc1* rdc_fla_read_mid_
0001:00001c3a* rdc_fla_read_did_
0001:00001cb3  rdc_fla_read_
0001:00001d53  rdc_fla_erase_sector_
0001:00001dda* rdc_fla_erase_block_
0001:00001e61  rdc_fla_program_page_
0001:00001f67  rdc_ec_init_
0001:00002128  rdc_wdt_en_
0001:000021b2  rdc_spi_init_
0001:000022c7  rdc_spi_uninit_
0001:00002318+ rdc_ft_pmc_status_
0001:00002381+ rdc_ft_pmc_protocl_
0001:00002494+ rdc_st_pmc_read_
0001:00002542* rdc_ec_get_ecram_info_
0001:0000268e  rdc_flash_info_
Module: rdc4.obj(D:\Neil\Work\UEFI\EDK2\AEUPkg\src\base\rdc4.c)
0001:00002766+ rdc4_pnp_unlock_
0001:000027a5+ rdc4_pnp_lock_
0001:000027d5+ rdc4_pnp_write_
0001:00002816+ rdc4_pnp_read_
0001:00002858  rdc4_pmc_write_cmd_
0001:000028a2  rdc4_pmc_write_data_
0001:000028ec  rdc4_pmc_read_data_
0001:00002935+ rdc4_ecio_inp_
0001:0000298c+ rdc4_ecio_outp_
0001:000029e2+ rdc4_ecio_inpw_
0001:00002a39+ rdc4_ecio_outpw_
0001:00002a8f  rdc4_ecio_inpd_
0001:00002ad9* rdc4_ecio_outpd_
0001:00002b9a+ rdc4_spi_data_exchange_
0001:00002c96+ rdc4_spi_read_data_
0001:00002cf5+ rdc4_spi_write_data_
0001:00002d54+ rdc4_fla_enable_write_
0001:00002da1+ rdc4_fla_disable_write_
0001:00002dee+ rdc4_fla_read_status_
0001:00002e51+ rdc4_fla_write_status_
0001:00002eec+ rdc4_fla_read_id_
0001:00002f62* rdc4_fla_read_mid_
0001:00002fdb* rdc4_fla_read_did_
0001:00003054  rdc4_fla_read_
0001:000030f4  rdc4_fla_erase_sector_
0001:0000317b* rdc4_fla_erase_block_
0001:00003202  rdc4_fla_program_page_
0001:00003308  rdc4_ec_init_
0001:000034c9  rdc4_wdt_en_
0001:00003553  rdc4_spi_init_
0001:00003668  rdc4_spi_uninit_
0001:000036b9+ rdc4_ft_pmc_status_
0001:00003722+ rdc4_ft_pmc_protocl_
0001:00003835+ rdc4_st_pmc_read_
0001:000038e3* rdc4_ec_get_ecram_info_
0001:00003a2f  rdc4_flash_info_
Module: util.obj(D:\Neil\Work\UEFI\EDK2\AEUPkg\src\base\util.c)
0001:00003b07* progress_init_
0001:00003b8e* progress_show_
0001:00003c13* progress_destroy_
0001:00003c42  dec_to_str_
Module: ebc_kf08.obj(D:\Neil\Work\UEFI\EDK2\AEUPkg\src\customer\ebc_kf08\ebc_kf08.c)
0001:00003d29* DisplayUsageOfEBCKF08_
0001:00003ec6* CheckProjectEBCKF08BoardName_
0001:00003f28* CheckProjectEBCKF08BinName_
Module: epc_c301.obj(D:\Neil\Work\UEFI\EDK2\AEUPkg\src\customer\epc_c301\epc_c301.c)
0001:00003f8a* DisplayUsageOfEPCC301_
0001:00004127* CheckProjectEPCC301BoardName_
0001:00004189* CheckProjectEPCC301BinName_
Module: som6867_exfo.obj(D:\Neil\Work\UEFI\EDK2\AEUPkg\src\customer\exfo_ec_update\som6867_exfo.c)
0001:000041d1* DisplayUsageOfSOM6867EXFO_
0001:0000436e+ mbox_check_busy_
0001:00004417+ mbox_write_cmd_
0001:0000448e+ mbox_read_data_
0001:00004526* CheckProjectSOM6867_
Module: mioe_260.obj(D:\Neil\Work\UEFI\EDK2\AEUPkg\src\customer\mioe_260\mioe_260.c)
0001:000045e2* DisplayUsageOfMIOE260_
Module: ecg4.obj(D:\Neil\Work\UEFI\EDK2\AEUPkg\src\ecg4.c)
0001:0000477f* ecg4_pmc_get_stat_
0001:0000480b+ ecg4_pmc_protocl_
0001:00004907+ ecg4_get_embedic_info_
0001:00004a53* ecg4_print_bin_info_
0001:00004c28+ ecg4_check_bin_sum_
0001:00004d8b+ ecg4_check_bin_info_
0001:00004f81+ ecg4_isp_entry_
0001:00005036+ ecg4_isp_exit_
0001:00005066+ ecg4_check_rsvd_
0001:00005112+ ecg4_update_area_
0001:000053f7+ ecg4_get_bin_info_
0001:000055c6+ ecg4_check_chip_
0001:0000564c+ ecg4_ec_update_
0001:00005abd+ ecg4_ec_check_model_name_
0001:00005b20+ ecg4_ec_init_
0001:00005ba9+ ecg4_ec_exit_
0002:000034e4+ _ecg4_chips
0002:000034e6  _ecg4_cb
Module: ecge.obj(D:\Neil\Work\UEFI\EDK2\AEUPkg\src\ecge.c)
0001:00005bfe+ ecge_enable_port6064_
0001:00005d4e  ecge_disable_port6064_
0001:00005ea5+ ecge_mbox_check_busy_
0001:00005f77  ecge_mbox_write_cmd_
0001:00005fee  ecge_mbox_read_data_
0001:000060e1* ecge_mbox_write_data_
0001:000061d7* ecge_mbox_read_para_
0001:0000624d* ecge_mbox_write_para_
0001:000062c4  ecge_mbox_read_stat_
0001:0000633a+ ecge_isp_entry_
0001:00006370+ ecge_isp_write_cmd_
0001:000063d5+ ecge_isp_write_data_
0001:00006478+ ecge_isp_read_data_
0001:00006537+ ecge_isp_check_write_en_
0001:000065d2+ ecge_isp_write_enable_
0001:000066ef+ ecge_isp_write_disable_
0001:0000674d+ ecge_isp_read_rom_id_
0001:000067d1+ ecge_isp_check_busy_
0001:00006858+ ecge_isp_rom_erase_
0001:00006911* ecge_isp_wdt_reset_
0001:00006941+ ecge_isp_block_program_
0001:00006ad1+ ecge_isp_block_program_sst_
0001:00006c03+ ecge_isp_programming_
0001:00006c5b+ ecge_isp_rom_verify_
0001:00006fe1* ecge_isp_check_erase_
0001:00007344+ ecge_ite_pjt_decode_
0001:000074b3+ ecge_mobx_get_embedic_info_
0001:000075f3+ ecge_acpi_get_embedic_info_
0001:000076f5+ ecge_get_embedic_info_
0001:000077d1+ ecge_get_bin_info_
0001:00007913+ ecge_ec_update_
0001:00007cef+ ecge_ec_check_model_name_
0001:00007d52+ ecge_ec_init_
0001:00007d94+ ecge_ec_exit_
0002:0000350c+ _ecge_chips
0002:00003512  _ecge_cb
Module: ecgf.obj(D:\Neil\Work\UEFI\EDK2\AEUPkg\src\ecgf.c)
0001:00007dbf* ecgf_pmc_get_stat_
0001:00007e4b  ecgf_pmc_protocl_
0001:00007f47+ ecgf_get_embedic_info_
0001:00008101* ecgf_print_bin_info_
0001:000082d6+ ecgf_check_bin_sum_
0001:00008439+ ecgf_check_bin_info_
0001:0000862f+ ecgf_isp_entry_
0001:000086e4+ ecgf_isp_exit_
0001:00008714+ ecgf_check_rsvd_
0001:000087c0+ ecgf_update_area_
0001:00008aa5+ ecgf_get_bin_info_
0001:00008c74+ ecgf_check_chip_
0001:00008cfa+ ecgf_ec_update_
0001:0000916b+ ecgf_ec_check_model_name_
0001:0000957a+ ecgf_ec_init_
0001:00009603+ ecgf_ec_exit_
0002:00003538+ _ecgf_chips
0002:0000353e  _ecgf_cb
Module: ecgi.obj(D:\Neil\Work\UEFI\EDK2\AEUPkg\src\ecgi.c)
0001:00009658+ ecgi_enable_port6064_
0001:000097a8* ecgi_disable_port6064_
0001:000098ff+ ecgi_mbox_check_busy_
0001:00009988+ ecgi_mbox_port_write_
0001:000099ec+ ecgi_mbox_port_read_
0001:00009a53+ ecgi_isp_entry_
0001:00009a89+ ecgi_isp_write_cmd_
0001:00009ad2+ ecgi_isp_write_data_
0001:00009b1b+ ecgi_isp_read_data_
0001:00009b63+ ecgi_isp_send_file_and_crypt_data_
0001:00009dc8+ ecgi_isp_enter_follow_mode_
0001:00009e0a+ ecgi_isp_exit_follow_mode_
0001:00009e4c+ ecgi_isp_send_spi_command_
0001:00009ea7+ ecgi_isp_send_spi_byte_
0001:00009f02+ ecgi_isp_read_from_spi_
0001:00009f5c+ ecgi_isp_wait_spi_free_
0001:00009fe1+ ecgi_isp_read_device_id_cmd_ab_
0001:0000a0d5+ ecgi_isp_read_device_id_
0001:0000a1ac+ ecgi_isp_spi_unlock_All_
0001:0000a2f0+ ecgi_isp_spi_write_enable_
0001:0000a3f4+ ecgi_isp_spi_write_disable_
0001:0000a4bd+ ecgi_isp_spi_sector_erase_
0001:0000a5b7+ ecgi_isp_byte_program_4K_from_file_
0001:0000a744+ ecgi_isp_spi_verify_4K_
0001:0000a8f1* ecgi_isp_wdt_reset_
0001:0000a921+ ecgi_ite_pjt_decode_
0001:0000aa41+ ecgi_mobx_get_embedic_info_method1_
0001:0000abe9+ ecgi_mobx_get_embedic_info_
0001:0000ad29+ ecgi_acpi_get_embedic_info_
0001:0000ae2b+ ecgi_mbx_check_access_method_
0001:0000af42+ ecgi_get_embedic_info_
0001:0000b06c+ ecgi_get_bin_info_
0001:0000b27b+ ecgi_ec_update_
0001:0000b79e+ ecgi_ec_check_model_name_
0001:0000b801+ ecgi_ec_init_
0001:0000b843+ ecgi_ec_exit_
0002:00003564+ _ecgi_chips
0002:00003566  _ecgi_cb
Module: ecgs.obj(D:\Neil\Work\UEFI\EDK2\AEUPkg\src\ecgs.c)
0001:0000b86e* ecgs_pmc_iwrite_
0001:0000b92f* ecgs_pmc_iread_
0001:0000b9ea* ecgs_pmc_write_
0001:0000ba90  ecgs_pmc_read_
0001:0000bb30+ ecgs_get_embedic_info_
0001:0000bc2a+ ecgs_check_bin_sum_
0001:0000bd8d+ ecgs_check_header_
0001:0000bdf1* ecgs_print_header_
0001:0000bfad+ ecgs_get_header_
0001:0000c069+ ecgs_get_bootheader_
0001:0000c119+ ecgs_get_bin_info_
0001:0000c213+ ecgs_isp_entry_
0001:0000c2c8+ ecgs_isp_exit_
0001:0000cba2+ ecgs_ec_update_
0001:0000cd57+ ecgs_ec_check_model_name_
0001:0000cdba+ ecgs_ec_init_
0001:0000cde6+ ecgs_ec_exit_
0002:0000358c+ _ecgs_chips
0002:0000358e  _ecgs_cb
Module: ecgx.obj(D:\Neil\Work\UEFI\EDK2\AEUPkg\src\ecgx.c)
0001:0000ce07* ecgx_pmc_get_stat_
0001:0000ce93* ecgx_pmc_protocl_
0001:0000cf8f+ ecgx_get_embedic_info_
0001:0000d089* ecgx_print_bin_info_
0001:0000d25e+ ecgx_check_bin_sum_
0001:0000d3c1+ ecgx_check_bin_info_
0001:0000d474+ ecgx_isp_entry_
0001:0000d529+ ecgx_isp_exit_
0001:0000d559* ecgx_check_rsvd_
0001:0000d605+ ecgx_update_area_
0001:0000d88c+ ecgx_get_bin_info_
0001:0000d9f5+ ecgx_ec_update_
0001:0000ddda+ ecgx_ec_check_model_name_
0001:0000de3d+ ecgx_ec_init_
0001:0000dec6+ ecgx_ec_exit_
0002:000035b4+ _ecgx_chips
0002:000035b6  _ecgx_cb
Module: ecgz.obj(D:\Neil\Work\UEFI\EDK2\AEUPkg\src\ecgz.c)
0001:0000df0d* ecgz_pmc_iwrite_
0001:0000dfce* ecgz_pmc_iread_
0001:0000e089* ecgz_pmc_write_
0001:0000e12f* ecgz_pmc_read_
0001:0000e1cf+ ecgz_get_embedic_info_
0001:0000e282+ ecgz_check_bin_sum_
0001:0000e3e5+ ecgz_check_header_
0001:0000e449* ecgz_print_header_
0001:0000e605+ ecgz_get_header_
0001:0000e6c1+ ecgz_get_bootheader_
0001:0000e771+ ecgz_get_bin_info_
0001:0000e86b+ ecgz_isp_entry_
0001:0000e920+ ecgz_isp_exit_
0001:0000f1fa+ ecgz_ec_update_
0001:0000f3af+ ecgz_ec_check_model_name_
0001:0000f412+ ecgz_ec_init_
0001:0000f43e+ ecgz_ec_exit_
0002:000035dc+ _ecgz_chips
0002:000035de  _ecgz_cb
Module: main.obj(D:\Neil\Work\UEFI\EDK2\AEUPkg\src\main.c)
0001:0000f45f+ check_extension_
0001:0000f669* CheckResetTime_
0001:0000f6fd+ decode_arg_
0001:0000f94d+ display_banner_
0001:0000f9fe+ display_usage_
0001:0000fabf  main_
0002:0000375c+ _env
0002:00003760+ _build_data
0002:00003764+ _build_ver
0002:00003ff8+ _user
0002:00004000+ _chip
Module: C:\WATCOM/lib386/dos\clib3r.lib(stk)
0001:0000fe43* __STK
0001:0000fe30  __CHK
0001:0000fe40* __GRO
0001:0000fe61* __STKOVERFLOW_
Module: C:\WATCOM/lib386/dos\clib3r.lib(iob)
0002:0000377c  ___iob
0002:00003984  __fmode
0002:00004004  ___OpenStreams
0002:00004008  ___ClosedStreams
Module: C:\WATCOM/lib386/dos\clib3r.lib(fprintf)
0001:0000fe70  fprintf_
Module: C:\WATCOM/lib386/dos\clib3r.lib(strcpy)
0001:0000fea0  strcpy_
Module: C:\WATCOM/lib386/dos\clib3r.lib(memset)
0001:0000fed0  memset_
Module: C:\WATCOM/lib386/dos\clib3r.lib(fopen)
0001:0000fef0+ __open_flags_
0001:00010120+ _fsopen_
0001:00010170  fopen_
0001:000101f0* freopen_
Module: C:\WATCOM/lib386/dos\clib3r.lib(fseek)
0001:000102b0  fseek_
Module: C:\WATCOM/lib386/dos\clib3r.lib(ftell)
0001:000103d0  ftell_
Module: C:\WATCOM/lib386/dos\clib3r.lib(sscanf)
0001:00010460+ vsscanf_
0001:00010490  sscanf_
Module: C:\WATCOM/lib386/dos\clib3r.lib(fclose)
0001:000104c0  fclose_
0001:000104f0  __shutdown_stream_
0001:00010510  __doclose_
0002:0000400c+ ___RmTmpFileFn
Module: C:\WATCOM/lib386/dos\clib3r.lib(outp)
0001:00010590  outp_
Module: C:\WATCOM/lib386/dos\clib3r.lib(inp)
0001:000105a0  inp_
Module: C:\WATCOM/lib386/dos\clib3r.lib(delay)
0001:000105b0  delay_
Module: C:\WATCOM/lib386/dos\clib3r.lib(outpw)
0001:000106d0  outpw_
Module: C:\WATCOM/lib386/dos\clib3r.lib(inpw)
0001:000106e0  inpw_
Module: C:\WATCOM/lib386/dos\clib3r.lib(inpd)
0001:000106f0  inpd_
Module: C:\WATCOM/lib386/dos\clib3r.lib(outpd)
0001:00010700  outpd_
Module: C:\WATCOM/lib386/dos\clib3r.lib(nmalloc)
0001:00010710  malloc_
0001:00010720  _nmalloc_
0002:00003988  ___nheapbeg
0002:0000398c  ___MiniHeapRover
0002:00003990  ___LargestSizeB4MiniHeapRover
Module: C:\WATCOM/lib386/dos\clib3r.lib(nfree)
0001:00010830  free_
0001:00010840  _nfree_
0002:00004010  ___MiniHeapFreeRover
Module: C:\WATCOM/lib386\math387r.lib(fchop)
0001:00010938  __CHP
Module: C:\WATCOM/lib386/dos\clib3r.lib(printf)
0001:00010950  printf_
Module: C:\WATCOM/lib386/dos\clib3r.lib(fflush)
0001:00010980  fflush_
Module: C:\WATCOM/lib386/dos\emu387.lib(386)
0001:00010990  __init_387_emulator
0001:00010995* __fini_387_emulator
Module: C:\WATCOM/lib386/dos\clib3r.lib(_8087)
0002:00003994  __8087
0002:00003995  __real87
Module: C:\WATCOM/lib386/dos\clib3r.lib(_strcmp)
0001:000109a0  strcmp_
Module: C:\WATCOM/lib386/dos\clib3r.lib(fread)
0001:00010ae0  fread_
Module: C:\WATCOM/lib386/dos\clib3r.lib(memcmp)
0001:00010d00  memcmp_
Module: C:\WATCOM/lib386/dos\clib3r.lib(sprintf)
0001:00010d20  sprintf_
Module: C:\WATCOM/lib386/dos\clib3r.lib(memcpy)
0001:00010d50  memcpy_
Module: C:\WATCOM/lib386/dos\clib3r.lib(kbhit)
0001:00010d80  kbhit_
Module: C:\WATCOM/lib386/dos\clib3r.lib(fltused)
0002:00003998  _fltused_
Module: C:\WATCOM/lib386/dos\clib3r.lib(rewind)
0001:00010da0  rewind_
Module: C:\WATCOM/lib386/dos\clib3r.lib(strlen)
0001:00010dc0  strlen_
Module: C:\WATCOM/lib386/dos\clib3r.lib(istable)
0002:00003604  __IsTable
Module: C:\WATCOM/lib386/dos\clib3r.lib(scanf)
0001:00010e60+ vscanf_
0001:00010e90  scanf_
Module: C:\WATCOM/lib386/dos\clib3r.lib(cstart)
0001:00000003* ___begtext
0002:00000000* __nullarea
0002:0000399c  __GDAptr
0002:000039a0  __D16Infoseg
0002:000039a2  __x386_zero_base_selector
0001:00010eac  _cstart_
0001:00011125  __exit_
0001:00011127  __do_exit_with_msg__
0001:00011160  __GETDS
0001:00011160  ___GETDSStart_
0001:0001116b  ___GETDSEnd_
Module: C:\WATCOM/lib386/dos\clib3r.lib(argcv)
0002:00004014  __argc
0002:00004018  __argv
0002:0000401c  ___argc
0002:00004020  ___argv
Module: C:\WATCOM/lib386/dos\clib3r.lib(xmsg)
0001:00011170* __exit_with_msg_
0001:00011180  __fatal_runtime_error_
Module: C:\WATCOM/lib386/dos\clib3r.lib(crwdata)
0002:000039df  __osmajor
0002:000039e0  __osminor
0002:000039b4  __psp
0002:000039d6  __Extender
0002:000039d7  __ExtenderSubtype
0002:000039d8  __X32VM
0002:000039b8* __x386_stacklow
0002:000039ac  __LpCmdLine
0002:000039b0  __LpPgmName
0002:000039a4  __dynend
0002:000039a8  __curbrk
0002:000039b8  __STACKLOW
0002:000039bc  __STACKTOP
0002:000039c0  __ASTACKSIZ
0002:000039c4  __ASTACKPTR
0002:000039c8  __cbyte
0002:000039cc* __cbyte2
0002:000039d0  __child
0002:000039d9  __Envptr
0002:000039dd  __Envseg
0002:000039d4  __no87
0002:000039e1  ___FPE_handler
Module: C:\WATCOM/lib386/dos\clib3r.lib(initfile)
0001:000111b0  __InitFiles_
Module: C:\WATCOM/lib386/dos\clib3r.lib(ioexit)
0001:00011250  __full_io_exit_
0001:00011260* fcloseall_
Module: C:\WATCOM/lib386/dos\clib3r.lib(fprtf)
0001:000112f0  __fprtf_
Module: C:\WATCOM/lib386/dos\clib3r.lib(__stos)
0001:000113a0  __STOSB
0001:000113d7* __STOSD
Module: C:\WATCOM/lib386/dos\clib3r.lib(comtflag)
0001:00011450* __set_commode_
0002:000039e8  __commode
Module: C:\WATCOM/lib386/dos\clib3r.lib(seterrno)
0001:0001145b  __set_errno_
0001:00011467* __set_EDOM_
0001:00011473  __set_ERANGE_
0001:0001147f* __set_EINVAL_
0001:00011490  __set_doserrno_
Module: C:\WATCOM/lib386/dos\clib3r.lib(tolower)
0001:000114a0  tolower_
Module: C:\WATCOM/lib386/dos\clib3r.lib(open)
0001:000114b0* open_
0001:000114d0  sopen_
Module: C:\WATCOM/lib386/dos\clib3r.lib(chktty)
0001:00011760  __chktty_
Module: C:\WATCOM/lib386/dos\clib3r.lib(freefp)
0001:000117a0  __freefp_
0001:000117e0  __purgefp_
Module: C:\WATCOM/lib386/dos\clib3r.lib(allocfp)
0001:00011810  __allocfp_
Module: C:\WATCOM/lib386/dos\clib3r.lib(lseek)
0001:000118d0  lseek_
Module: C:\WATCOM/lib386/dos\clib3r.lib(flush)
0001:00011900  __flush_
Module: C:\WATCOM/lib386/dos\clib3r.lib(tell)
0001:00011a10  tell_
Module: C:\WATCOM/lib386/dos\clib3r.lib(scnf)
0001:00012760  __scnf_
Module: C:\WATCOM/lib386/dos\clib3r.lib(lseekdos)
0001:000129f0  __lseek_
Module: C:\WATCOM/lib386/dos\clib3r.lib(_clse)
0001:00012a40  __close_
Module: C:\WATCOM/lib386/dos\clib3r.lib(nmemneed)
0001:00012a90  __nmemneed_
Module: C:\WATCOM/lib386/dos\clib3r.lib(mem)
0001:00012aa0  __MemAllocator
0001:00012b60  __MemFree
Module: C:\WATCOM/lib386/dos\clib3r.lib(grownear)
0001:00012d30+ __FreeDPMIBlocks_
0001:00012db0  __ReAllocDPMIBlock_
0001:00012f40+ __LastFree_
0001:00013140  __ExpandDGROUP_
Module: C:\WATCOM/lib386/dos\clib3r.lib(flushall)
0001:00013310  flushall_
0001:00013320  __flushall_
Module: C:\WATCOM/lib386/dos\clib3r.lib(dosinite)
0001:00013352  __sys_init_387_emulator
0001:000134cf  __sys_fini_387_emulator
Module: C:\WATCOM/lib386/dos\clib3r.lib(chk8087)
0001:000135d0* _fpreset_
0001:000135f0+ __init_8087_
0001:00013640+ __default_sigfpe_handler_
0001:00013660  __chk8087_
Module: C:\WATCOM/lib386/dos\clib3r.lib(qread)
0001:000136d0  __qread_
Module: C:\WATCOM/lib386/dos\clib3r.lib(ioalloc)
0001:00013700  __ioalloc_
Module: C:\WATCOM/lib386/dos\clib3r.lib(fgetc)
0001:000137a0  fgetc_
0001:00013850+ __filbuf_
0001:00013880  __fill_buffer_
Module: C:\WATCOM/lib386/dos\clib3r.lib(vsprintf)
0001:00013980  vsprintf_
Module: C:\WATCOM/lib386/dos\clib3r.lib(setefg)
0001:000139a0  __setEFGfmt_
Module: C:\WATCOM/lib386/dos\clib3r.lib(ungetc)
0001:000139c0  ungetc_
Module: C:\WATCOM/lib386/dos\clib3r.lib(cmain386)
0001:00013a60  __CMain
Module: C:\WATCOM/lib386/dos\clib3r.lib(initrtns)
0001:00013ab0  __InitRtns
0001:00013b00  __FiniRtns
Module: C:\WATCOM/lib386/dos\clib3r.lib(dosseg)
0000:00001234  __DOSseg__
Module: C:\WATCOM/lib386/dos\clib3r.lib(initargv)
0001:00013b60  __Init_Argv_
0001:00013bb0+ _getargv_
0001:00013d50  __Fini_Argv_
Module: C:\WATCOM/lib386/dos\clib3r.lib(enterdb)
0001:00013d70  __EnterWVIDEO_
0002:00003a38+ ___WD_Present
Module: C:\WATCOM/lib386/dos\clib3r.lib(fputc)
0001:00013da0  fputc_
Module: C:\WATCOM/lib386/dos\clib3r.lib(prtf)
0001:00013e70  __prtf_
Module: C:\WATCOM/lib386/dos\clib3r.lib(errno)
0001:00014d00  __get_errno_ptr_
0001:00014d10  __get_doserrno_ptr_
0002:00004028+ _errno
0002:0000402c+ __doserrno
Module: C:\WATCOM/lib386/dos\clib3r.lib(iomode)
0001:00014d20  __GetIOMode_
0001:00014d40  __SetIOMode_nogrow_
0002:00003a3c  ___NFiles
0002:00003a40  ___init_mode
0002:00003a90  ___io_mode
Module: C:\WATCOM/lib386/dos\clib3r.lib(isatt)
0001:00014d60  isatty_
Module: C:\WATCOM/lib386/dos\clib3r.lib(umaskval)
0002:00003a94  ___umaskval
Module: C:\WATCOM/lib386/dos\clib3r.lib(stiomode)
0001:00014d80+ __grow_iomode_
0001:00014e40+ __shrink_iomode_
0001:00014e80  __SetIOMode_
Module: C:\WATCOM/lib386/dos\clib3r.lib(dosret)
0001:00014ef0* _dosret0_
0001:00014f00  _dosretax_
0001:00014f10  __set_errno_dos_
Module: C:\WATCOM/lib386/dos\clib3r.lib(qwrit)
0001:00014f90  __qwrite_
Module: C:\WATCOM/lib386/dos\clib3r.lib(fsync)
0001:00015010  fsync_
Module: C:\WATCOM/lib386/dos\clib3r.lib(mbisdbcs)
0002:00004034  ___IsDBCS
Module: C:\WATCOM/lib386/dos\clib3r.lib(mbislead)
0001:00015020* _ismbblead_
0002:00004038  ___MBCSIsTable
Module: C:\WATCOM/lib386/dos\clib3r.lib(mbtowc)
0001:00015040  mbtowc_
Module: C:\WATCOM/lib386/dos\clib3r.lib(noefgfmt)
0002:00003aac  ___EFG_printf
0002:00003ab0  ___EFG_scanf
Module: C:\WATCOM/lib386/dos\clib3r.lib(fdfs386)
0001:00015114  __FDFS
Module: C:\WATCOM/lib386/dos\clib3r.lib(i8m)
0001:00015160* __I8M
0001:00015160  __U8M
Module: C:\WATCOM/lib386/dos\clib3r.lib(heapen)
0001:00015180* _heapenable_
0002:00003ab4  ___heap_enabled
Module: C:\WATCOM/lib386/dos\clib3r.lib(minreal)
0002:0000413c  ___minreal
Module: C:\WATCOM/lib386/dos\clib3r.lib(sbrk386)
0001:00015190* sbrk_
0001:00015270  __brk_
Module: C:\WATCOM/lib386/dos\clib3r.lib(amblksiz)
0002:00003ab8  __amblksiz
Module: C:\WATCOM/lib386/dos\emu387.lib(emu387)
0001:00015750  __int7_pl3
0001:00015774* __int7_X32VM
0001:000157c0  __int7
Module: C:\WATCOM/lib386/dos\clib3r.lib(hook387)
0001:00018840  __hook387
0001:000188f0  __unhook387
Module: C:\WATCOM/lib386/dos\clib3r.lib(8087cw)
0002:00003b40  __8087cw
Module: C:\WATCOM/lib386/dos\clib3r.lib(save8087)
0002:00003b44  ___Save8087
0002:00003b48  ___Rest8087
Module: C:\WATCOM/lib386/dos\clib3r.lib(init8087)
0001:00018934  __x87id
Module: C:\WATCOM/lib386/dos\clib3r.lib(grabfp87)
0001:00018970  __GrabFP87_
Module: C:\WATCOM/lib386/dos\clib3r.lib(gtche)
0001:000189e0  getche_
Module: C:\WATCOM/lib386\math387r.lib(efgfmt)
0001:00018b94  _EFG_Format_
Module: C:\WATCOM/lib386\math387r.lib(cnvs2d)
0001:00018df5  __cnvs2d_
Module: C:\WATCOM/lib386/dos\clib3r.lib(cinit)
0001:00018e10  __CommonInit_
Module: C:\WATCOM/lib386/dos\clib3r.lib(___argc)
0002:000041c0  ____Argv
0002:000041c4  ____Argc
Module: C:\WATCOM/lib386/dos\clib3r.lib(exit)
0001:00018e80  __null_int23_exit_
0001:00018e82  exit_
0001:00018eae* _exit_
0002:00003b4c  ___int23_exit
0002:00003b50  ___FPE_handler_exit
Module: C:\WATCOM/lib386/dos\clib3r.lib(sgdef086)
0002:00003e9c  __Start_XI
0002:00003ed8  __End_XI
0002:00003ed8  __Start_YI
0002:00003ef6  __End_YI
Module: C:\WATCOM/lib386/dos\clib3r.lib(histsplt)
0002:000041c8  ___historical_splitparms
Module: C:\WATCOM/lib386/dos\clib3r.lib(wctomb)
0001:00018ed0  wctomb_
Module: C:\WATCOM/lib386/dos\clib3r.lib(itoa)
0001:00018f00+ utoa_
0001:00018f50  itoa_
Module: C:\WATCOM/lib386/dos\clib3r.lib(strupr)
0001:00018f80  strupr_
Module: C:\WATCOM/lib386/dos\clib3r.lib(lltoa)
0001:00018fa0  ulltoa_
0001:00019010* lltoa_
Module: C:\WATCOM/lib386/dos\clib3r.lib(ltoa)
0001:00019040  ultoa_
0001:00019090* ltoa_
Module: C:\WATCOM/lib386/dos\clib3r.lib(nrealloc)
0001:000190c0  realloc_
0001:000190d0+ _nrealloc_
Module: C:\WATCOM/lib386/dos\clib3r.lib(iomodtty)
0001:00019170  __ChkTTYIOMode_
0001:000191c0* __IOMode_
Module: C:\WATCOM/lib386/dos\clib3r.lib(dosfile)
0001:000191d4* _dos_close_
0001:000191e3  _dos_commit_
0001:000191f3* _dos_open_
Module: C:\WATCOM/lib386/dos\clib3r.lib(mbinit)
0001:00019244  __mbinit_
0001:00019315+ dos_get_dbcs_lead_table_
0001:000193f5+ dos_get_code_page_
0002:00003b54+ ___MBCodePage
Module: C:\WATCOM/lib386/dos\clib3r.lib(fpexcept)
0001:000195a0  __FPE_exception_
Module: C:\WATCOM/lib386/dos\clib3r.lib(fpe387)
0002:00003b58  ___PMSeg
0002:00003b5a  ___PMAddr
0002:00003b5e  ___RMAddr
0001:000195a8  __Init_FPE_handler_
0001:000195e0  __Fini_FPE_handler_
Module: C:\WATCOM/lib386/dos\clib3r.lib(sigsy)
0001:00019760  __DPMI_hosted_
0001:00019800  __restore_int23_
0001:00019900  __restore_int_ctrl_break_
0001:00019a40  __grab_int23_
0001:00019ba0  __grab_int_ctrl_break_
0001:00019d40  __restore_FPE_handler_
0001:00019d60  __grab_FPE_handler_
Module: C:\WATCOM/lib386/dos\clib3r.lib(fpeinth)
0001:00019d84  __FPEHandler_
0001:00019d84  ___FPEHandlerStart_
0001:00019d91  __FPE2Handler_
0001:00019e93  ___FPEHandlerEnd_
Module: C:\WATCOM/lib386\math387r.lib(ldcvt)
0001:0001a0b4  _LDScale10x_
0001:0001a6eb  __LDcvt_
Module: C:\WATCOM/lib386\math387r.lib(strtod)
0001:0001ab4d+ __Strtold_
0001:0001ad1c  strtod_
Module: C:\WATCOM/lib386/dos\clib3r.lib(alphabet)
0002:00003454  ___Alphabet
Module: C:\WATCOM/lib386/dos\clib3r.lib(nmsize)
0001:0001ae10* _msize_
0001:0001ae20  _nmsize_
Module: C:\WATCOM/lib386/dos\clib3r.lib(nexpand)
0001:0001ae30* _expand_
0001:0001ae40+ __HeapManager_expand_
0001:0001b000  _nexpand_
Module: C:\WATCOM/lib386/dos\clib3r.lib(doserror)
0001:0001b080  __doserror_
Module: C:\WATCOM/lib386/dos\clib3r.lib(intr)
0001:0001b0a0  intr_
Module: C:\WATCOM/lib386/dos\clib3r.lib(inirmsel)
0002:000045cc  __ExtenderRealModeSelector
Module: C:\WATCOM/lib386/dos\clib3r.lib(intd386)
0001:0001b1e0  intdos_
Module: C:\WATCOM/lib386/dos\clib3r.lib(fpephar)
0001:0001b230  __Phar_hook_init_
0001:0001b2f6  __Phar_hook_fini_
Module: C:\WATCOM/lib386/dos\clib3r.lib(fpedos4g)
0001:0001b324  __DOS4G_hook_init_
0001:0001b352  __DOS4G_hook_fini_
Module: C:\WATCOM/lib386/dos\clib3r.lib(signl)
0001:0001b370+ __sigabort_
0001:0001b380  __sigfpe_handler_
0001:0001b3b0* signal_
0001:0001b4b0  raise_
Module: C:\WATCOM/lib386/dos\clib3r.lib(chainint)
0001:0001b56e  _chain_intr_
Module: C:\WATCOM/lib386/dos\clib3r.lib(d_setvec)
0001:0001b590  _dos_setvect_
Module: C:\WATCOM/lib386/dos\clib3r.lib(nonibm)
0001:0001b5c0+ __is_nonIBM_
0002:00003e8c  ___NonIBM
Module: C:\WATCOM/lib386/dos\clib3r.lib(d_getvec)
0001:0001b620  _dos_getvect_
Module: C:\WATCOM/lib386\math387r.lib(ldclass)
0001:0001b659  __LDClass_
Module: C:\WATCOM/lib386/dos\clib3r.lib(bufld386)
0001:0001b6ac  __ZBuf2LD
Module: C:\WATCOM/lib386/dos\clib3r.lib(hugeval)
0002:00003710  __HugeValue
Module: C:\WATCOM/lib386/dos\clib3r.lib(int386xa)
0001:0001b750* __int386x_
0001:0001b7ac  _DoINTR_
Module: C:\WATCOM/lib386/dos\clib3r.lib(fpeint)
0002:00003e90  ___FPE_int
0002:00003e91  ___IRQ_num
0002:00003e92+ ___IRQ_int
0002:00003e93  ___MST_pic
0002:00003e94+ ___SLV_pic
Module: C:\WATCOM/lib386/dos\clib3r.lib(abort)
0001:0001bb8f* abort_
0001:0001bbaa  __terminate_
0002:00003e98  ___abort


                        +----------------------+
                        |   Imported Symbols   |
                        +----------------------+

Symbol                              Module
======                              ======



                        +--------------------+
                        |   Libraries Used   |
                        +--------------------+

C:\WATCOM/lib386\math387r.lib
C:\WATCOM/lib386/dos\emu387.lib
C:\WATCOM/lib386/dos\clib3r.lib


                        +-----------------------+
                        |   Linker Statistics   |
                        +-----------------------+

Stack size:  1000 (4096.)
Memory size:  0002118c (135564.)
Entry point address: 0001:00010eac
Link time: 00:00.62
